(dp1
S'files'
p2
(dp3
S'apps_menu___init__'
p4
(dp5
S'index'
p6
(dp7
S'html_filename'
p8
S'apps_menu___init__.html'
p9
sS'name'
p10
S'apps\\menu\\__init__'
p11
sS'nums'
p12
ccopy_reg
_reconstructor
p13
(ccoverage.results
Numbers
p14
c__builtin__
object
p15
NtRp16
(dp17
S'n_files'
p18
I1
sS'n_branches'
p19
I0
sS'n_statements'
p20
I0
sS'n_excluded'
p21
I0
sS'n_partial_branches'
p22
I0
sS'n_missing'
p23
I0
sS'n_missing_branches'
p24
I0
sbssS'hash'
p25
S'\xca\xf5\x9f\x7f\x88\xdfa\x831|T\x1d\xbc}\xa5v'
p26
ssS'shelf___init__'
p27
(dp28
g6
(dp29
g8
S'shelf___init__.html'
p30
sg10
S'shelf\\__init__'
p31
sg12
g13
(g14
g15
NtRp32
(dp33
g18
I1
sg19
I0
sg20
I0
sg21
I0
sg22
I0
sg23
I0
sg24
I0
sbssg25
S'\xca\xf5\x9f\x7f\x88\xdfa\x831|T\x1d\xbc}\xa5v'
p34
ssS'apps_pages___init__'
p35
(dp36
g6
(dp37
g8
S'apps_pages___init__.html'
p38
sg10
S'apps\\pages\\__init__'
p39
sg12
g13
(g14
g15
NtRp40
(dp41
g18
I1
sg19
I0
sg20
I0
sg21
I0
sg22
I0
sg23
I0
sg24
I0
sbssg25
S'\xca\xf5\x9f\x7f\x88\xdfa\x831|T\x1d\xbc}\xa5v'
p42
ssS'apps_menu_tests'
p43
(dp44
g6
(dp45
g8
S'apps_menu_tests.html'
p46
sg10
S'apps\\menu\\tests'
p47
sg12
g13
(g14
g15
NtRp48
(dp49
g18
I1
sg19
I0
sg20
I4
sg21
I0
sg22
I0
sg23
I0
sg24
I0
sbssg25
S'\xe5\xc7X\x04rgg\x8a\x08\x14\xaa\xc0@\xc2\x8b\x97'
p50
ssS'apps_gallery___init__'
p51
(dp52
g6
(dp53
g8
S'apps_gallery___init__.html'
p54
sg10
S'apps\\gallery\\__init__'
p55
sg12
g13
(g14
g15
NtRp56
(dp57
g18
I1
sg19
I0
sg20
I0
sg21
I0
sg22
I0
sg23
I0
sg24
I0
sbssg25
S'\xca\xf5\x9f\x7f\x88\xdfa\x831|T\x1d\xbc}\xa5v'
p58
ssS'apps_images_tests'
p59
(dp60
g6
(dp61
g8
S'apps_images_tests.html'
p62
sg10
S'apps\\images\\tests'
p63
sg12
g13
(g14
g15
NtRp64
(dp65
g18
I1
sg19
I0
sg20
I4
sg21
I0
sg22
I0
sg23
I0
sg24
I0
sbssg25
S'\xe5\xc7X\x04rgg\x8a\x08\x14\xaa\xc0@\xc2\x8b\x97'
p66
ssS'manage'
p67
(dp68
g6
(dp69
g8
S'manage.html'
p70
sg10
g67
sg12
g13
(g14
g15
NtRp71
(dp72
g18
I1
sg19
I0
sg20
I6
sg21
I0
sg22
I0
sg23
I0
sg24
I0
sbssg25
S'\n\x94\xfe%&\xb1\x95\xb6V\x0c\xa3\x9cl\xed#~'
p73
ssS'apps_images___init__'
p74
(dp75
g6
(dp76
g8
S'apps_images___init__.html'
p77
sg10
S'apps\\images\\__init__'
p78
sg12
g13
(g14
g15
NtRp79
(dp80
g18
I1
sg19
I0
sg20
I0
sg21
I0
sg22
I0
sg23
I0
sg24
I0
sbssg25
S'\xca\xf5\x9f\x7f\x88\xdfa\x831|T\x1d\xbc}\xa5v'
p81
ssS'apps_gallery_tests'
p82
(dp83
g6
(dp84
g8
S'apps_gallery_tests.html'
p85
sg10
S'apps\\gallery\\tests'
p86
sg12
g13
(g14
g15
NtRp87
(dp88
g18
I1
sg19
I0
sg20
I4
sg21
I0
sg22
I0
sg23
I0
sg24
I0
sbssg25
S'\xe5\xc7X\x04rgg\x8a\x08\x14\xaa\xc0@\xc2\x8b\x97'
p89
ssS'apps_gallery_models'
p90
(dp91
g6
(dp92
g8
S'apps_gallery_models.html'
p93
sg10
S'apps\\gallery\\models'
p94
sg12
g13
(g14
g15
NtRp95
(dp96
g18
I1
sg19
I0
sg20
I3
sg21
I0
sg22
I0
sg23
I0
sg24
I0
sbssg25
S'\xfd\xa7\x19\x14\xe2I#\xf1\xe4\xbf\xa8\xa3\xc9\xe8\xf9\r'
p97
ssS'apps___init__'
p98
(dp99
g6
(dp100
g8
S'apps___init__.html'
p101
sg10
S'apps\\__init__'
p102
sg12
g13
(g14
g15
NtRp103
(dp104
g18
I1
sg19
I0
sg20
I0
sg21
I0
sg22
I0
sg23
I0
sg24
I0
sbssg25
S'\xca\xf5\x9f\x7f\x88\xdfa\x831|T\x1d\xbc}\xa5v'
p105
ssS'apps_timestamp___init__'
p106
(dp107
g6
(dp108
g8
S'apps_timestamp___init__.html'
p109
sg10
S'apps\\timestamp\\__init__'
p110
sg12
g13
(g14
g15
NtRp111
(dp112
g18
I1
sg19
I0
sg20
I0
sg21
I0
sg22
I0
sg23
I0
sg24
I0
sbssg25
S'\xca\xf5\x9f\x7f\x88\xdfa\x831|T\x1d\xbc}\xa5v'
p113
ssS'apps_pages_tests'
p114
(dp115
g6
(dp116
g8
S'apps_pages_tests.html'
p117
sg10
S'apps\\pages\\tests'
p118
sg12
g13
(g14
g15
NtRp119
(dp120
g18
I1
sg19
I0
sg20
I4
sg21
I0
sg22
I0
sg23
I0
sg24
I0
sbssg25
S'\xe5\xc7X\x04rgg\x8a\x08\x14\xaa\xc0@\xc2\x8b\x97'
p121
ssS'apps_images_models'
p122
(dp123
g6
(dp124
g8
S'apps_images_models.html'
p125
sg10
S'apps\\images\\models'
p126
sg12
g13
(g14
g15
NtRp127
(dp128
g18
I1
sg19
I0
sg20
I9
sg21
I0
sg22
I0
sg23
I0
sg24
I0
sbssg25
S'\x0b\x8c\r\xf7M\xaa\xeau\x97*\xf6\xfa\xef\xfc\xb0D'
p129
ssS'shelf_settings'
p130
(dp131
g6
(dp132
g8
S'shelf_settings.html'
p133
sg10
S'shelf\\settings'
p134
sg12
g13
(g14
g15
NtRp135
(dp136
g18
I1
sg19
I0
sg20
I34
sg21
I0
sg22
I0
sg23
I0
sg24
I0
sbssg25
S'\x85\xc2\xcaP\x90\xfcg\xc1g\\86&\xe2:\x89'
p137
ssS'apps_menu_models'
p138
(dp139
g6
(dp140
g8
S'apps_menu_models.html'
p141
sg10
S'apps\\menu\\models'
p142
sg12
g13
(g14
g15
NtRp143
(dp144
g18
I1
sg19
I0
sg20
I7
sg21
I0
sg22
I0
sg23
I0
sg24
I0
sbssg25
S'\x83Y\xf8\xd4\xc7\xea\x92\x18\x91\x15\x01W\xb6\xfd\xb7\xaa'
p145
ssS'apps_timestamp_models'
p146
(dp147
g6
(dp148
S'html_filename'
p149
S'apps_timestamp_models.html'
p150
sS'name'
p151
S'apps\\timestamp\\models'
p152
sS'nums'
p153
g13
(g14
g15
NtRp154
(dp155
g18
I1
sg19
I0
sg20
I17
sg21
I0
sg22
I0
sg23
I1
sg24
I0
sbssg25
S'\xbd\xde\xa3\xfb+\xddu\xb64\xc0\x03\x99\x13\xee\xdcx'
p156
ssS'apps_pages_models'
p157
(dp158
g6
(dp159
S'html_filename'
p160
S'apps_pages_models.html'
p161
sS'name'
p162
S'apps\\pages\\models'
p163
sS'nums'
p164
g13
(g14
g15
NtRp165
(dp166
g18
I1
sg19
I0
sg20
I14
sg21
I0
sg22
I0
sg23
I0
sg24
I0
sbssg25
S'\xaf\x92\xc8U\x88\xfa]\x13\xf9\x0fv\x06\xaf\xde\xe3,'
p167
sssS'version'
p168
S'3.7.1'
p169
sS'settings'
p170
S'\x98\xa8x\xfe"r\xb5K\x98\xb1N\\\x99\x9e\xf3\xe5'
p171
sS'format'
p172
I1
s.